target datalayout = "e-m:e-p270:32:32-p271:32:32-p272:64:64-i64:64-i128:128-f80:128-n8:16:32:64-S128"
target triple = "x86_64-pc-linux-gnu"

@.str.20 = private unnamed_addr constant [3 x i8] c";\0A\00", align 1
@.str.27 = private unnamed_addr constant [13 x i8] c"ALTER %s %s \00", align 1
@.str.28 = private unnamed_addr constant [10 x i8] c"IN %s %s \00", align 1
@.str.29 = private unnamed_addr constant [11 x i8] c"SET %s TO \00", align 1
@.str.30 = private unnamed_addr constant [3 x i8] c", \00", align 1

; Function Attrs: nounwind uwtable
define dso_local void @makeAlterConfigCommand(ptr noundef %0, ptr noundef %1, ptr noundef %2, ptr noundef %3, ptr noundef %4, ptr noundef %5, ptr noundef %6) #0 {
  %8 = alloca ptr, align 8
  %9 = alloca ptr, align 8
  %10 = alloca ptr, align 8
  %11 = alloca ptr, align 8
  %12 = alloca ptr, align 8
  %13 = alloca ptr, align 8
  %14 = alloca ptr, align 8
  %15 = alloca ptr, align 8
  %16 = alloca ptr, align 8
  %17 = alloca i32, align 4
  %18 = alloca ptr, align 8
  %19 = alloca ptr, align 8
  store ptr %0, ptr %8, align 8
  store ptr %1, ptr %9, align 8
  store ptr %2, ptr %10, align 8
  store ptr %3, ptr %11, align 8
  store ptr %4, ptr %12, align 8
  store ptr %5, ptr %13, align 8
  store ptr %6, ptr %14, align 8
  call void @llvm.lifetime.start.p0(i64 8, ptr %15) #8
  call void @llvm.lifetime.start.p0(i64 8, ptr %16) #8
  %20 = load ptr, ptr %9, align 8
  %21 = call ptr @pg_strdup(ptr noundef %20)
  store ptr %21, ptr %15, align 8
  %22 = load ptr, ptr %15, align 8
  %23 = call ptr @strchr(ptr noundef %22, i32 noundef 61) #9
  store ptr %23, ptr %16, align 8
  %24 = load ptr, ptr %16, align 8
  %25 = icmp eq ptr %24, null
  br i1 %25, label %26, label %28

26:                                               ; preds = %7
  %27 = load ptr, ptr %15, align 8
  call void @pg_free(ptr noundef %27)
  store i32 1, ptr %17, align 4
  br label %84

28:                                               ; preds = %7
  %29 = load ptr, ptr %16, align 8
  %30 = getelementptr inbounds nuw i8, ptr %29, i32 1
  store ptr %30, ptr %16, align 8
  store i8 0, ptr %29, align 1
  %31 = load ptr, ptr %14, align 8
  %32 = load ptr, ptr %10, align 8
  %33 = load ptr, ptr %11, align 8
  %34 = call ptr @fmtId(ptr noundef %33)
  call void (ptr, ptr, ...) @appendPQExpBuffer(ptr noundef %31, ptr noundef @.str.27, ptr noundef %32, ptr noundef %34)
  %35 = load ptr, ptr %12, align 8
  %36 = icmp ne ptr %35, null
  br i1 %36, label %37, label %45

37:                                               ; preds = %28
  %38 = load ptr, ptr %13, align 8
  %39 = icmp ne ptr %38, null
  br i1 %39, label %40, label %45

40:                                               ; preds = %37
  %41 = load ptr, ptr %14, align 8
  %42 = load ptr, ptr %12, align 8
  %43 = load ptr, ptr %13, align 8
  %44 = call ptr @fmtId(ptr noundef %43)
  call void (ptr, ptr, ...) @appendPQExpBuffer(ptr noundef %41, ptr noundef @.str.28, ptr noundef %42, ptr noundef %44)
  br label %45

45:                                               ; preds = %40, %37, %28
  %46 = load ptr, ptr %14, align 8
  %47 = load ptr, ptr %15, align 8
  %48 = call ptr @fmtId(ptr noundef %47)
  call void (ptr, ptr, ...) @appendPQExpBuffer(ptr noundef %46, ptr noundef @.str.29, ptr noundef %48)
  %49 = load ptr, ptr %15, align 8
  %50 = call zeroext i1 @variable_is_guc_list_quote(ptr noundef %49)
  br i1 %50, label %51, label %77

51:                                               ; preds = %45
  call void @llvm.lifetime.start.p0(i64 8, ptr %18) #8
  call void @llvm.lifetime.start.p0(i64 8, ptr %19) #8
  %52 = load ptr, ptr %16, align 8
  %53 = call zeroext i1 @SplitGUCList(ptr noundef %52, i8 noundef signext 44, ptr noundef %18)
  br i1 %53, label %54, label %75

54:                                               ; preds = %51
  %55 = load ptr, ptr %18, align 8
  store ptr %55, ptr %19, align 8
  br label %56

56:                                               ; preds = %71, %54
  %57 = load ptr, ptr %19, align 8
  %58 = load ptr, ptr %57, align 8
  %59 = icmp ne ptr %58, null
  br i1 %59, label %60, label %74

60:                                               ; preds = %56
  %61 = load ptr, ptr %19, align 8
  %62 = load ptr, ptr %18, align 8
  %63 = icmp ne ptr %61, %62
  br i1 %63, label %64, label %66

64:                                               ; preds = %60
  %65 = load ptr, ptr %14, align 8
  call void @appendPQExpBufferStr(ptr noundef %65, ptr noundef @.str.30)
  br label %66

66:                                               ; preds = %64, %60
  %67 = load ptr, ptr %14, align 8
  %68 = load ptr, ptr %19, align 8
  %69 = load ptr, ptr %68, align 8
  %70 = load ptr, ptr %8, align 8
  call void @appendStringLiteralConn(ptr noundef %67, ptr noundef %69, ptr noundef %70)
  br label %71

71:                                               ; preds = %66
  %72 = load ptr, ptr %19, align 8
  %73 = getelementptr inbounds nuw ptr, ptr %72, i32 1
  store ptr %73, ptr %19, align 8
  br label %56, !llvm.loop !21

74:                                               ; preds = %56
  br label %75

75:                                               ; preds = %74, %51
  %76 = load ptr, ptr %18, align 8
  call void @pg_free(ptr noundef %76)
  call void @llvm.lifetime.end.p0(i64 8, ptr %19) #8
  call void @llvm.lifetime.end.p0(i64 8, ptr %18) #8
  br label %81

77:                                               ; preds = %45
  %78 = load ptr, ptr %14, align 8
  %79 = load ptr, ptr %16, align 8
  %80 = load ptr, ptr %8, align 8
  call void @appendStringLiteralConn(ptr noundef %78, ptr noundef %79, ptr noundef %80)
  br label %81

81:                                               ; preds = %77, %75
  %82 = load ptr, ptr %14, align 8
  call void @appendPQExpBufferStr(ptr noundef %82, ptr noundef @.str.20)
  %83 = load ptr, ptr %15, align 8
  call void @pg_free(ptr noundef %83)
  store i32 0, ptr %17, align 4
  br label %84

84:                                               ; preds = %81, %26
  call void @llvm.lifetime.end.p0(i64 8, ptr %16) #8
  call void @llvm.lifetime.end.p0(i64 8, ptr %15) #8
  %85 = load i32, ptr %17, align 4
  switch i32 %85, label %87 [
    i32 0, label %86
    i32 1, label %86
  ]

86:                                               ; preds = %84, %84
  ret void

87:                                               ; preds = %84
  unreachable
}