; Function Attrs: nounwind uwtable
define dso_local void @makeAlterConfigCommand(ptr noundef %0, ptr noundef %1, ptr noundef %2, ptr noundef %3, ptr noundef %4, ptr noundef %5, ptr noundef %6) local_unnamed_addr #0 {
  %8 = alloca ptr, align 8
  %9 = tail call ptr @pg_strdup(ptr noundef %1) #8
  %10 = tail call ptr @strchr(ptr noundef nonnull dereferenceable(1) %9, i32 noundef 61) #9
  %11 = icmp eq ptr %10, null
  br i1 %11, label %34, label %12

12:                                               ; preds = %7
  %13 = getelementptr inbounds nuw i8, ptr %10, i64 1
  store i8 0, ptr %10, align 1
  %14 = tail call ptr @fmtId(ptr noundef %3) #8
  tail call void (ptr, ptr, ...) @appendPQExpBuffer(ptr noundef %6, ptr noundef nonnull @.str.27, ptr noundef %2, ptr noundef %14) #8
  %15 = icmp ne ptr %4, null
  %16 = icmp ne ptr %5, null
  %or.cond = and i1 %15, %16
  br i1 %or.cond, label %17, label %19

17:                                               ; preds = %12
  %18 = tail call ptr @fmtId(ptr noundef nonnull %5) #8
  tail call void (ptr, ptr, ...) @appendPQExpBuffer(ptr noundef %6, ptr noundef nonnull @.str.28, ptr noundef nonnull %4, ptr noundef %18) #8
  br label %19

19:                                               ; preds = %17, %12
  %20 = tail call ptr @fmtId(ptr noundef nonnull %9) #8
  tail call void (ptr, ptr, ...) @appendPQExpBuffer(ptr noundef %6, ptr noundef nonnull @.str.29, ptr noundef %20) #8
  %21 = tail call zeroext i1 @variable_is_guc_list_quote(ptr noundef nonnull %9)
  br i1 %21, label %22, label %32

22:                                               ; preds = %19
  call void @llvm.lifetime.start.p0(i64 8, ptr nonnull %8) #8
  %23 = call zeroext i1 @SplitGUCList(ptr noundef nonnull %13, i8 noundef signext 44, ptr noundef nonnull %8)
  %.pre36 = load ptr, ptr %8, align 8
  br i1 %23, label %24, label %.loopexit

24:                                               ; preds = %22
  %25 = load ptr, ptr %.pre36, align 8
  %.not34 = icmp eq ptr %25, null
  br i1 %.not34, label %.loopexit, label %.lr.ph

.lr.ph:                                           ; preds = %24, %28
  %26 = phi ptr [ %31, %28 ], [ %25, %24 ]
  %.035 = phi ptr [ %30, %28 ], [ %.pre36, %24 ]
  %.not33 = icmp eq ptr %.035, %.pre36
  br i1 %.not33, label %28, label %27

27:                                               ; preds = %.lr.ph
  tail call void @appendPQExpBufferStr(ptr noundef %6, ptr noundef nonnull @.str.30) #8
  %.pre = load ptr, ptr %.035, align 8
  br label %28

28:                                               ; preds = %27, %.lr.ph
  %29 = phi ptr [ %.pre, %27 ], [ %26, %.lr.ph ]
  tail call void @appendStringLiteralConn(ptr noundef %6, ptr noundef %29, ptr noundef %0) #8
  %30 = getelementptr inbounds nuw i8, ptr %.035, i64 8
  %31 = load ptr, ptr %30, align 8
  %.not = icmp eq ptr %31, null
  br i1 %.not, label %.loopexit, label %.lr.ph, !llvm.loop !21

.loopexit:                                        ; preds = %28, %24, %22
  tail call void @pg_free(ptr noundef %.pre36) #8
  call void @llvm.lifetime.end.p0(i64 8, ptr nonnull %8) #8
  br label %33

32:                                               ; preds = %19
  tail call void @appendStringLiteralConn(ptr noundef %6, ptr noundef nonnull %13, ptr noundef %0) #8
  br label %33

33:                                               ; preds = %32, %.loopexit
  tail call void @appendPQExpBufferStr(ptr noundef %6, ptr noundef nonnull @.str.20) #8
  br label %34

34:                                               ; preds = %7, %33
  tail call void @pg_free(ptr noundef nonnull %9) #8
  ret void
}